target datalayout = "e-m:e-p270:32:32-p271:32:32-p272:64:64-i64:64-i128:128-f80:128-n8:16:32:64-S128"
target triple = "x86_64-pc-linux-gnu"

%struct._xmlEntity = type { ptr, i32, ptr, ptr, ptr, ptr, ptr, ptr, ptr, ptr, ptr, i32, i32, ptr, ptr, ptr, ptr, i32, i32 }
%struct._zval_struct = type { %union._zend_value, %union.anon, %union.anon.2 }
%union._zend_value = type { i64 }
%union.anon = type { i32 }
%union.anon.2 = type { i32 }
%struct._zend_refcounted_h = type { i32, %union.anon.3 }
%union.anon.3 = type { i32 }
%struct._zend_string = type { %struct._zend_refcounted_h, i64, i64, [1 x i8] }

; Function Attrs: nounwind uwtable
define hidden i32 @dom_entity_system_id_read(ptr noundef %0, ptr noundef %1) #0 {
  %3 = alloca ptr, align 8
  %4 = alloca i32, align 4
  %5 = alloca i64, align 8
  %6 = alloca i8, align 1
  %7 = alloca ptr, align 8
  %8 = alloca ptr, align 8
  %9 = alloca i64, align 8
  %10 = alloca i8, align 1
  %11 = alloca ptr, align 8
  %12 = alloca i32, align 4
  %13 = alloca ptr, align 8
  %14 = alloca ptr, align 8
  %15 = alloca ptr, align 8
  %16 = alloca ptr, align 8
  %17 = alloca ptr, align 8
  %18 = alloca ptr, align 8
  store ptr %0, ptr %13, align 8
  store ptr %1, ptr %14, align 8
  %19 = load ptr, ptr %13, align 8
  %20 = call ptr @dom_object_get_node(ptr noundef %19)
  store ptr %20, ptr %15, align 8
  %21 = load ptr, ptr %15, align 8
  %22 = icmp eq ptr %21, null
  br i1 %22, label %23, label %24

23:                                               ; preds = %2
  call void @php_dom_throw_error(i32 noundef 11, i32 noundef 1)
  store i32 -1, ptr %12, align 4
  br label %498

24:                                               ; preds = %2
  %25 = load ptr, ptr %15, align 8
  %26 = getelementptr inbounds %struct._xmlEntity, ptr %25, i32 0, i32 12
  %27 = load i32, ptr %26, align 4
  %28 = icmp ne i32 %27, 3
  br i1 %28, label %29, label %34

29:                                               ; preds = %24
  br label %30

30:                                               ; preds = %29
  %31 = load ptr, ptr %14, align 8
  %32 = getelementptr inbounds %struct._zval_struct, ptr %31, i32 0, i32 1
  store i32 1, ptr %32, align 8
  br label %33

33:                                               ; preds = %30
  br label %497

34:                                               ; preds = %24
  br label %35

35:                                               ; preds = %34
  %36 = load ptr, ptr %15, align 8
  %37 = getelementptr inbounds %struct._xmlEntity, ptr %36, i32 0, i32 14
  %38 = load ptr, ptr %37, align 8
  store ptr %38, ptr %16, align 8
  br label %39

39:                                               ; preds = %35
  br label %40

40:                                               ; preds = %39
  %41 = load ptr, ptr %14, align 8
  store ptr %41, ptr %17, align 8
  %42 = load ptr, ptr %16, align 8
  %43 = load ptr, ptr %16, align 8
  %44 = call i64 @strlen(ptr noundef %43) #6
  store ptr %42, ptr %8, align 8
  store i64 %44, ptr %9, align 8
  store i8 0, ptr %10, align 1
  %45 = load i64, ptr %9, align 8
  %46 = load i8, ptr %10, align 1
  %47 = trunc i8 %46 to i1
  store i64 %45, ptr %5, align 8
  %48 = zext i1 %47 to i8
  store i8 %48, ptr %6, align 1
  %49 = load i8, ptr %6, align 1
  %50 = trunc i8 %49 to i1
  br i1 %50, label %51, label %59

51:                                               ; preds = %40
  %52 = load i64, ptr %5, align 8
  %53 = add i64 24, %52
  %54 = add i64 %53, 1
  %55 = add i64 %54, 8
  %56 = sub i64 %55, 1
  %57 = and i64 %56, -8
  %58 = call noalias ptr @__zend_malloc(i64 noundef %57) #7
  br label %463

59:                                               ; preds = %40
  %60 = load i64, ptr %5, align 8
  %61 = add i64 24, %60
  %62 = add i64 %61, 1
  %63 = add i64 %62, 8
  %64 = sub i64 %63, 1
  %65 = and i64 %64, -8
  %66 = call i1 @llvm.is.constant.i64(i64 %65)
  br i1 %66, label %67, label %453

67:                                               ; preds = %59
  %68 = load i64, ptr %5, align 8
  %69 = add i64 24, %68
  %70 = add i64 %69, 1
  %71 = add i64 %70, 8
  %72 = sub i64 %71, 1
  %73 = and i64 %72, -8
  %74 = icmp ule i64 %73, 8
  br i1 %74, label %75, label %77

75:                                               ; preds = %67
  %76 = call noalias ptr @_emalloc_8() #8
  br label %451

77:                                               ; preds = %67
  %78 = load i64, ptr %5, align 8
  %79 = add i64 24, %78
  %80 = add i64 %79, 1
  %81 = add i64 %80, 8
  %82 = sub i64 %81, 1
  %83 = and i64 %82, -8
  %84 = icmp ule i64 %83, 16
  br i1 %84, label %85, label %87

85:                                               ; preds = %77
  %86 = call noalias ptr @_emalloc_16() #8
  br label %449

87:                                               ; preds = %77
  %88 = load i64, ptr %5, align 8
  %89 = add i64 24, %88
  %90 = add i64 %89, 1
  %91 = add i64 %90, 8
  %92 = sub i64 %91, 1
  %93 = and i64 %92, -8
  %94 = icmp ule i64 %93, 24
  br i1 %94, label %95, label %97

95:                                               ; preds = %87
  %96 = call noalias ptr @_emalloc_24() #8
  br label %447

97:                                               ; preds = %87
  %98 = load i64, ptr %5, align 8
  %99 = add i64 24, %98
  %100 = add i64 %99, 1
  %101 = add i64 %100, 8
  %102 = sub i64 %101, 1
  %103 = and i64 %102, -8
  %104 = icmp ule i64 %103, 32
  br i1 %104, label %105, label %107

105:                                              ; preds = %97
  %106 = call noalias ptr @_emalloc_32() #8
  br label %445

107:                                              ; preds = %97
  %108 = load i64, ptr %5, align 8
  %109 = add i64 24, %108
  %110 = add i64 %109, 1
  %111 = add i64 %110, 8
  %112 = sub i64 %111, 1
  %113 = and i64 %112, -8
  %114 = icmp ule i64 %113, 40
  br i1 %114, label %115, label %117

115:                                              ; preds = %107
  %116 = call noalias ptr @_emalloc_40() #8
  br label %443

117:                                              ; preds = %107
  %118 = load i64, ptr %5, align 8
  %119 = add i64 24, %118
  %120 = add i64 %119, 1
  %121 = add i64 %120, 8
  %122 = sub i64 %121, 1
  %123 = and i64 %122, -8
  %124 = icmp ule i64 %123, 48
  br i1 %124, label %125, label %127

125:                                              ; preds = %117
  %126 = call noalias ptr @_emalloc_48() #8
  br label %441

127:                                              ; preds = %117
  %128 = load i64, ptr %5, align 8
  %129 = add i64 24, %128
  %130 = add i64 %129, 1
  %131 = add i64 %130, 8
  %132 = sub i64 %131, 1
  %133 = and i64 %132, -8
  %134 = icmp ule i64 %133, 56
  br i1 %134, label %135, label %137

135:                                              ; preds = %127
  %136 = call noalias ptr @_emalloc_56() #8
  br label %439

137:                                              ; preds = %127
  %138 = load i64, ptr %5, align 8
  %139 = add i64 24, %138
  %140 = add i64 %139, 1
  %141 = add i64 %140, 8
  %142 = sub i64 %141, 1
  %143 = and i64 %142, -8
  %144 = icmp ule i64 %143, 64
  br i1 %144, label %145, label %147

145:                                              ; preds = %137
  %146 = call noalias ptr @_emalloc_64() #8
  br label %437

147:                                              ; preds = %137
  %148 = load i64, ptr %5, align 8
  %149 = add i64 24, %148
  %150 = add i64 %149, 1
  %151 = add i64 %150, 8
  %152 = sub i64 %151, 1
  %153 = and i64 %152, -8
  %154 = icmp ule i64 %153, 80
  br i1 %154, label %155, label %157

155:                                              ; preds = %147
  %156 = call noalias ptr @_emalloc_80() #8
  br label %435

157:                                              ; preds = %147
  %158 = load i64, ptr %5, align 8
  %159 = add i64 24, %158
  %160 = add i64 %159, 1
  %161 = add i64 %160, 8
  %162 = sub i64 %161, 1
  %163 = and i64 %162, -8
  %164 = icmp ule i64 %163, 96
  br i1 %164, label %165, label %167

165:                                              ; preds = %157
  %166 = call noalias ptr @_emalloc_96() #8
  br label %433

167:                                              ; preds = %157
  %168 = load i64, ptr %5, align 8
  %169 = add i64 24, %168
  %170 = add i64 %169, 1
  %171 = add i64 %170, 8
  %172 = sub i64 %171, 1
  %173 = and i64 %172, -8
  %174 = icmp ule i64 %173, 112
  br i1 %174, label %175, label %177

175:                                              ; preds = %167
  %176 = call noalias ptr @_emalloc_112() #8
  br label %431

177:                                              ; preds = %167
  %178 = load i64, ptr %5, align 8
  %179 = add i64 24, %178
  %180 = add i64 %179, 1
  %181 = add i64 %180, 8
  %182 = sub i64 %181, 1
  %183 = and i64 %182, -8
  %184 = icmp ule i64 %183, 128
  br i1 %184, label %185, label %187

185:                                              ; preds = %177
  %186 = call noalias ptr @_emalloc_128() #8
  br label %429

187:                                              ; preds = %177
  %188 = load i64, ptr %5, align 8
  %189 = add i64 24, %188
  %190 = add i64 %189, 1
  %191 = add i64 %190, 8
  %192 = sub i64 %191, 1
  %193 = and i64 %192, -8
  %194 = icmp ule i64 %193, 160
  br i1 %194, label %195, label %197

195:                                              ; preds = %187
  %196 = call noalias ptr @_emalloc_160() #8
  br label %427

197:                                              ; preds = %187
  %198 = load i64, ptr %5, align 8
  %199 = add i64 24, %198
  %200 = add i64 %199, 1
  %201 = add i64 %200, 8
  %202 = sub i64 %201, 1
  %203 = and i64 %202, -8
  %204 = icmp ule i64 %203, 192
  br i1 %204, label %205, label %207

205:                                              ; preds = %197
  %206 = call noalias ptr @_emalloc_192() #8
  br label %425

207:                                              ; preds = %197
  %208 = load i64, ptr %5, align 8
  %209 = add i64 24, %208
  %210 = add i64 %209, 1
  %211 = add i64 %210, 8
  %212 = sub i64 %211, 1
  %213 = and i64 %212, -8
  %214 = icmp ule i64 %213, 224
  br i1 %214, label %215, label %217

215:                                              ; preds = %207
  %216 = call noalias ptr @_emalloc_224() #8
  br label %423

217:                                              ; preds = %207
  %218 = load i64, ptr %5, align 8
  %219 = add i64 24, %218
  %220 = add i64 %219, 1
  %221 = add i64 %220, 8
  %222 = sub i64 %221, 1
  %223 = and i64 %222, -8
  %224 = icmp ule i64 %223, 256
  br i1 %224, label %225, label %227

225:                                              ; preds = %217
  %226 = call noalias ptr @_emalloc_256() #8
  br label %421

227:                                              ; preds = %217
  %228 = load i64, ptr %5, align 8
  %229 = add i64 24, %228
  %230 = add i64 %229, 1
  %231 = add i64 %230, 8
  %232 = sub i64 %231, 1
  %233 = and i64 %232, -8
  %234 = icmp ule i64 %233, 320
  br i1 %234, label %235, label %237

235:                                              ; preds = %227
  %236 = call noalias ptr @_emalloc_320() #8
  br label %419

237:                                              ; preds = %227
  %238 = load i64, ptr %5, align 8
  %239 = add i64 24, %238
  %240 = add i64 %239, 1
  %241 = add i64 %240, 8
  %242 = sub i64 %241, 1
  %243 = and i64 %242, -8
  %244 = icmp ule i64 %243, 384
  br i1 %244, label %245, label %247

245:                                              ; preds = %237
  %246 = call noalias ptr @_emalloc_384() #8
  br label %417

247:                                              ; preds = %237
  %248 = load i64, ptr %5, align 8
  %249 = add i64 24, %248
  %250 = add i64 %249, 1
  %251 = add i64 %250, 8
  %252 = sub i64 %251, 1
  %253 = and i64 %252, -8
  %254 = icmp ule i64 %253, 448
  br i1 %254, label %255, label %257

255:                                              ; preds = %247
  %256 = call noalias ptr @_emalloc_448() #8
  br label %415

257:                                              ; preds = %247
  %258 = load i64, ptr %5, align 8
  %259 = add i64 24, %258
  %260 = add i64 %259, 1
  %261 = add i64 %260, 8
  %262 = sub i64 %261, 1
  %263 = and i64 %262, -8
  %264 = icmp ule i64 %263, 512
  br i1 %264, label %265, label %267

265:                                              ; preds = %257
  %266 = call noalias ptr @_emalloc_512() #8
  br label %413

267:                                              ; preds = %257
  %268 = load i64, ptr %5, align 8
  %269 = add i64 24, %268
  %270 = add i64 %269, 1
  %271 = add i64 %270, 8
  %272 = sub i64 %271, 1
  %273 = and i64 %272, -8
  %274 = icmp ule i64 %273, 640
  br i1 %274, label %275, label %277

275:                                              ; preds = %267
  %276 = call noalias ptr @_emalloc_640() #8
  br label %411

277:                                              ; preds = %267
  %278 = load i64, ptr %5, align 8
  %279 = add i64 24, %278
  %280 = add i64 %279, 1
  %281 = add i64 %280, 8
  %282 = sub i64 %281, 1
  %283 = and i64 %282, -8
  %284 = icmp ule i64 %283, 768
  br i1 %284, label %285, label %287

285:                                              ; preds = %277
  %286 = call noalias ptr @_emalloc_768() #8
  br label %409

287:                                              ; preds = %277
  %288 = load i64, ptr %5, align 8
  %289 = add i64 24, %288
  %290 = add i64 %289, 1
  %291 = add i64 %290, 8
  %292 = sub i64 %291, 1
  %293 = and i64 %292, -8
  %294 = icmp ule i64 %293, 896
  br i1 %294, label %295, label %297

295:                                              ; preds = %287
  %296 = call noalias ptr @_emalloc_896() #8
  br label %407

297:                                              ; preds = %287
  %298 = load i64, ptr %5, align 8
  %299 = add i64 24, %298
  %300 = add i64 %299, 1
  %301 = add i64 %300, 8
  %302 = sub i64 %301, 1
  %303 = and i64 %302, -8
  %304 = icmp ule i64 %303, 1024
  br i1 %304, label %305, label %307

305:                                              ; preds = %297
  %306 = call noalias ptr @_emalloc_1024() #8
  br label %405

307:                                              ; preds = %297
  %308 = load i64, ptr %5, align 8
  %309 = add i64 24, %308
  %310 = add i64 %309, 1
  %311 = add i64 %310, 8
  %312 = sub i64 %311, 1
  %313 = and i64 %312, -8
  %314 = icmp ule i64 %313, 1280
  br i1 %314, label %315, label %317

315:                                              ; preds = %307
  %316 = call noalias ptr @_emalloc_1280() #8
  br label %403

317:                                              ; preds = %307
  %318 = load i64, ptr %5, align 8
  %319 = add i64 24, %318
  %320 = add i64 %319, 1
  %321 = add i64 %320, 8
  %322 = sub i64 %321, 1
  %323 = and i64 %322, -8
  %324 = icmp ule i64 %323, 1536
  br i1 %324, label %325, label %327

325:                                              ; preds = %317
  %326 = call noalias ptr @_emalloc_1536() #8
  br label %401

327:                                              ; preds = %317
  %328 = load i64, ptr %5, align 8
  %329 = add i64 24, %328
  %330 = add i64 %329, 1
  %331 = add i64 %330, 8
  %332 = sub i64 %331, 1
  %333 = and i64 %332, -8
  %334 = icmp ule i64 %333, 1792
  br i1 %334, label %335, label %337

335:                                              ; preds = %327
  %336 = call noalias ptr @_emalloc_1792() #8
  br label %399

337:                                              ; preds = %327
  %338 = load i64, ptr %5, align 8
  %339 = add i64 24, %338
  %340 = add i64 %339, 1
  %341 = add i64 %340, 8
  %342 = sub i64 %341, 1
  %343 = and i64 %342, -8
  %344 = icmp ule i64 %343, 2048
  br i1 %344, label %345, label %347

345:                                              ; preds = %337
  %346 = call noalias ptr @_emalloc_2048() #8
  br label %397

347:                                              ; preds = %337
  %348 = load i64, ptr %5, align 8
  %349 = add i64 24, %348
  %350 = add i64 %349, 1
  %351 = add i64 %350, 8
  %352 = sub i64 %351, 1
  %353 = and i64 %352, -8
  %354 = icmp ule i64 %353, 2560
  br i1 %354, label %355, label %357

355:                                              ; preds = %347
  %356 = call noalias ptr @_emalloc_2560() #8
  br label %395

357:                                              ; preds = %347
  %358 = load i64, ptr %5, align 8
  %359 = add i64 24, %358
  %360 = add i64 %359, 1
  %361 = add i64 %360, 8
  %362 = sub i64 %361, 1
  %363 = and i64 %362, -8
  %364 = icmp ule i64 %363, 3072
  br i1 %364, label %365, label %367

365:                                              ; preds = %357
  %366 = call noalias ptr @_emalloc_3072() #8
  br label %393

367:                                              ; preds = %357
  %368 = load i64, ptr %5, align 8
  %369 = add i64 24, %368
  %370 = add i64 %369, 1
  %371 = add i64 %370, 8
  %372 = sub i64 %371, 1
  %373 = and i64 %372, -8
  %374 = icmp ule i64 %373, 2093056
  br i1 %374, label %375, label %383

375:                                              ; preds = %367
  %376 = load i64, ptr %5, align 8
  %377 = add i64 24, %376
  %378 = add i64 %377, 1
  %379 = add i64 %378, 8
  %380 = sub i64 %379, 1
  %381 = and i64 %380, -8
  %382 = call noalias ptr @_emalloc_large(i64 noundef %381) #7
  br label %391

383:                                              ; preds = %367
  %384 = load i64, ptr %5, align 8
  %385 = add i64 24, %384
  %386 = add i64 %385, 1
  %387 = add i64 %386, 8
  %388 = sub i64 %387, 1
  %389 = and i64 %388, -8
  %390 = call noalias ptr @_emalloc_huge(i64 noundef %389) #7
  br label %391

391:                                              ; preds = %383, %375
  %392 = phi ptr [ %382, %375 ], [ %390, %383 ]
  br label %393

393:                                              ; preds = %391, %365
  %394 = phi ptr [ %366, %365 ], [ %392, %391 ]
  br label %395

395:                                              ; preds = %393, %355
  %396 = phi ptr [ %356, %355 ], [ %394, %393 ]
  br label %397

397:                                              ; preds = %395, %345
  %398 = phi ptr [ %346, %345 ], [ %396, %395 ]
  br label %399

399:                                              ; preds = %397, %335
  %400 = phi ptr [ %336, %335 ], [ %398, %397 ]
  br label %401

401:                                              ; preds = %399, %325
  %402 = phi ptr [ %326, %325 ], [ %400, %399 ]
  br label %403

403:                                              ; preds = %401, %315
  %404 = phi ptr [ %316, %315 ], [ %402, %401 ]
  br label %405

405:                                              ; preds = %403, %305
  %406 = phi ptr [ %306, %305 ], [ %404, %403 ]
  br label %407

407:                                              ; preds = %405, %295
  %408 = phi ptr [ %296, %295 ], [ %406, %405 ]
  br label %409

409:                                              ; preds = %407, %285
  %410 = phi ptr [ %286, %285 ], [ %408, %407 ]
  br label %411

411:                                              ; preds = %409, %275
  %412 = phi ptr [ %276, %275 ], [ %410, %409 ]
  br label %413

413:                                              ; preds = %411, %265
  %414 = phi ptr [ %266, %265 ], [ %412, %411 ]
  br label %415

415:                                              ; preds = %413, %255
  %416 = phi ptr [ %256, %255 ], [ %414, %413 ]
  br label %417

417:                                              ; preds = %415, %245
  %418 = phi ptr [ %246, %245 ], [ %416, %415 ]
  br label %419

419:                                              ; preds = %417, %235
  %420 = phi ptr [ %236, %235 ], [ %418, %417 ]
  br label %421

421:                                              ; preds = %419, %225
  %422 = phi ptr [ %226, %225 ], [ %420, %419 ]
  br label %423

423:                                              ; preds = %421, %215
  %424 = phi ptr [ %216, %215 ], [ %422, %421 ]
  br label %425

425:                                              ; preds = %423, %205
  %426 = phi ptr [ %206, %205 ], [ %424, %423 ]
  br label %427

427:                                              ; preds = %425, %195
  %428 = phi ptr [ %196, %195 ], [ %426, %425 ]
  br label %429

429:                                              ; preds = %427, %185
  %430 = phi ptr [ %186, %185 ], [ %428, %427 ]
  br label %431

431:                                              ; preds = %429, %175
  %432 = phi ptr [ %176, %175 ], [ %430, %429 ]
  br label %433

433:                                              ; preds = %431, %165
  %434 = phi ptr [ %166, %165 ], [ %432, %431 ]
  br label %435

435:                                              ; preds = %433, %155
  %436 = phi ptr [ %156, %155 ], [ %434, %433 ]
  br label %437

437:                                              ; preds = %435, %145
  %438 = phi ptr [ %146, %145 ], [ %436, %435 ]
  br label %439

439:                                              ; preds = %437, %135
  %440 = phi ptr [ %136, %135 ], [ %438, %437 ]
  br label %441

441:                                              ; preds = %439, %125
  %442 = phi ptr [ %126, %125 ], [ %440, %439 ]
  br label %443

443:                                              ; preds = %441, %115
  %444 = phi ptr [ %116, %115 ], [ %442, %441 ]
  br label %445

445:                                              ; preds = %443, %105
  %446 = phi ptr [ %106, %105 ], [ %444, %443 ]
  br label %447

447:                                              ; preds = %445, %95
  %448 = phi ptr [ %96, %95 ], [ %446, %445 ]
  br label %449

449:                                              ; preds = %447, %85
  %450 = phi ptr [ %86, %85 ], [ %448, %447 ]
  br label %451

451:                                              ; preds = %449, %75
  %452 = phi ptr [ %76, %75 ], [ %450, %449 ]
  br label %461

453:                                              ; preds = %59
  %454 = load i64, ptr %5, align 8
  %455 = add i64 24, %454
  %456 = add i64 %455, 1
  %457 = add i64 %456, 8
  %458 = sub i64 %457, 1
  %459 = and i64 %458, -8
  %460 = call noalias ptr @_emalloc(i64 noundef %459) #7
  br label %461

461:                                              ; preds = %453, %451
  %462 = phi ptr [ %452, %451 ], [ %460, %453 ]
  br label %463

463:                                              ; preds = %461, %51
  %464 = phi ptr [ %58, %51 ], [ %462, %461 ]
  store ptr %464, ptr %7, align 8
  %465 = load ptr, ptr %7, align 8
  store ptr %465, ptr %3, align 8
  store i32 1, ptr %4, align 4
  %466 = load i32, ptr %4, align 4
  %467 = load ptr, ptr %3, align 8
  store i32 %466, ptr %467, align 4
  %468 = load i8, ptr %6, align 1
  %469 = trunc i8 %468 to i1
  %470 = select i1 %469, i32 128, i32 0
  %471 = or i32 22, %470
  %472 = load ptr, ptr %7, align 8
  %473 = getelementptr inbounds %struct._zend_refcounted_h, ptr %472, i32 0, i32 1
  store i32 %471, ptr %473, align 4
  %474 = load ptr, ptr %7, align 8
  %475 = getelementptr inbounds %struct._zend_string, ptr %474, i32 0, i32 1
  store i64 0, ptr %475, align 8
  %476 = load i64, ptr %5, align 8
  %477 = load ptr, ptr %7, align 8
  %478 = getelementptr inbounds %struct._zend_string, ptr %477, i32 0, i32 2
  store i64 %476, ptr %478, align 8
  %479 = load ptr, ptr %7, align 8
  store ptr %479, ptr %11, align 8
  %480 = load ptr, ptr %11, align 8
  %481 = getelementptr inbounds %struct._zend_string, ptr %480, i32 0, i32 3
  %482 = load ptr, ptr %8, align 8
  %483 = load i64, ptr %9, align 8
  call void @llvm.memcpy.p0.p0.i64(ptr align 8 %481, ptr align 1 %482, i64 %483, i1 false)
  %484 = load ptr, ptr %11, align 8
  %485 = getelementptr inbounds %struct._zend_string, ptr %484, i32 0, i32 3
  %486 = load i64, ptr %9, align 8
  %487 = getelementptr inbounds [1 x i8], ptr %485, i64 0, i64 %486
  store i8 0, ptr %487, align 1
  %488 = load ptr, ptr %11, align 8
  store ptr %488, ptr %18, align 8
  %489 = load ptr, ptr %18, align 8
  %490 = load ptr, ptr %17, align 8
  %491 = getelementptr inbounds %struct._zval_struct, ptr %490, i32 0, i32 0
  store ptr %489, ptr %491, align 8
  %492 = load ptr, ptr %17, align 8
  %493 = getelementptr inbounds %struct._zval_struct, ptr %492, i32 0, i32 1
  store i32 262, ptr %493, align 8
  br label %494

494:                                              ; preds = %463
  br label %495

495:                                              ; preds = %494
  br label %496

496:                                              ; preds = %495
  br label %497

497:                                              ; preds = %496, %33
  store i32 0, ptr %12, align 4
  br label %498

498:                                              ; preds = %497, %23
  %499 = load i32, ptr %12, align 4
  ret i32 %499
}