; Function Attrs: nounwind uwtable
define hidden noundef i32 @dom_entity_system_id_read(ptr noundef %0, ptr nocapture noundef writeonly %1) local_unnamed_addr #0 {
  %3 = tail call ptr @dom_object_get_node(ptr noundef %0) #6
  %4 = icmp eq ptr %3, null
  br i1 %4, label %5, label %6

5:                                                ; preds = %2
  tail call void @php_dom_throw_error(i32 noundef 11, i32 noundef 1) #6
  br label %24

6:                                                ; preds = %2
  %7 = getelementptr inbounds i8, ptr %3, i64 92
  %8 = load i32, ptr %7, align 4
  %.not = icmp eq i32 %8, 3
  br i1 %.not, label %11, label %9

9:                                                ; preds = %6
  %10 = getelementptr inbounds i8, ptr %1, i64 8
  store i32 1, ptr %10, align 8
  br label %24

11:                                               ; preds = %6
  %12 = getelementptr inbounds i8, ptr %3, i64 104
  %13 = load ptr, ptr %12, align 8
  %14 = tail call i64 @strlen(ptr noundef nonnull dereferenceable(1) %13) #7
  %15 = and i64 %14, -8
  %16 = add i64 %15, 32
  %17 = tail call noalias ptr @_emalloc(i64 noundef %16) #8
  store i32 1, ptr %17, align 4
  %18 = getelementptr inbounds i8, ptr %17, i64 4
  store i32 22, ptr %18, align 4
  %19 = getelementptr inbounds i8, ptr %17, i64 8
  store i64 0, ptr %19, align 8
  %20 = getelementptr inbounds i8, ptr %17, i64 16
  store i64 %14, ptr %20, align 8
  %21 = getelementptr inbounds i8, ptr %17, i64 24
  tail call void @llvm.memcpy.p0.p0.i64(ptr nonnull align 8 %21, ptr align 1 %13, i64 %14, i1 false)
  %22 = getelementptr inbounds [1 x i8], ptr %21, i64 0, i64 %14
  store i8 0, ptr %22, align 1
  store ptr %17, ptr %1, align 8
  %23 = getelementptr inbounds i8, ptr %1, i64 8
  store i32 262, ptr %23, align 8
  br label %24

24:                                               ; preds = %9, %11, %5
  %.0 = phi i32 [ -1, %5 ], [ 0, %11 ], [ 0, %9 ]
  ret i32 %.0
}